target datalayout = "e-m:e-p270:32:32-p271:32:32-p272:64:64-i64:64-i128:128-f80:128-n8:16:32:64-S128"
target triple = "x86_64-pc-linux-gnu"

%struct.oidset = type { %struct.kh_oid_set }
%struct.kh_oid_set = type { i32, i32, i32, i32, ptr, ptr, ptr }
%struct.refs_cb_data = type { ptr, ptr }

@the_repository = external global ptr, align 8
@.str.20 = private unnamed_addr constant [30 x i8] c"Collecting referenced commits\00", align 1
@.str.31 = private unnamed_addr constant [1 x i8] zeroinitializer, align 1
@git_gettext_enabled = external global i32, align 4
@.str.56 = private unnamed_addr constant [5 x i8] c"done\00", align 1

; Function Attrs: inlinehint nounwind uwtable
define internal void @stop_progress(ptr noundef %0) #5 {
  %2 = alloca ptr, align 8
  store ptr %0, ptr %2, align 8, !tbaa !191
  %3 = load ptr, ptr %2, align 8, !tbaa !191
  %4 = call ptr @_(ptr noundef @.str.56)
  call void @stop_progress_msg(ptr noundef %3, ptr noundef %4)
  ret void
}

; Function Attrs: inlinehint nounwind uwtable
define internal ptr @_(ptr noundef %0) #5 {
  %2 = alloca ptr, align 8
  %3 = alloca ptr, align 8
  store ptr %0, ptr %3, align 8, !tbaa !65
  %4 = load ptr, ptr %3, align 8, !tbaa !65
  %5 = load i8, ptr %4, align 1, !tbaa !85
  %6 = icmp ne i8 %5, 0
  br i1 %6, label %8, label %7

7:                                                ; preds = %1
  store ptr @.str.31, ptr %2, align 8
  br label %16

8:                                                ; preds = %1
  %9 = load i32, ptr @git_gettext_enabled, align 4, !tbaa !4
  %10 = icmp ne i32 %9, 0
  br i1 %10, label %13, label %11

11:                                               ; preds = %8
  %12 = load ptr, ptr %3, align 8, !tbaa !65
  store ptr %12, ptr %2, align 8
  br label %16

13:                                               ; preds = %8
  %14 = load ptr, ptr %3, align 8, !tbaa !65
  %15 = call ptr @dcgettext(ptr noundef null, ptr noundef %14, i32 noundef 5) #12
  store ptr %15, ptr %2, align 8
  br label %16

16:                                               ; preds = %13, %11, %7
  %17 = load ptr, ptr %2, align 8
  ret ptr %17
}

; Function Attrs: nounwind uwtable
define dso_local i32 @write_commit_graph_reachable(ptr noundef %0, i32 noundef %1, ptr noundef %2) #0 {
  %4 = alloca ptr, align 8
  %5 = alloca i32, align 4
  %6 = alloca ptr, align 8
  %7 = alloca %struct.oidset, align 8
  %8 = alloca %struct.refs_cb_data, align 8
  %9 = alloca i32, align 4
  store ptr %0, ptr %4, align 8, !tbaa !44
  store i32 %1, ptr %5, align 4, !tbaa !4
  store ptr %2, ptr %6, align 8, !tbaa !45
  call void @llvm.lifetime.start.p0(i64 40, ptr %7) #12
  call void @llvm.memset.p0.i64(ptr align 8 %7, i8 0, i64 40, i1 false)
  call void @llvm.lifetime.start.p0(i64 16, ptr %8) #12
  call void @llvm.lifetime.start.p0(i64 4, ptr %9) #12
  call void @llvm.memset.p0.i64(ptr align 8 %8, i8 0, i64 16, i1 false)
  %10 = getelementptr inbounds nuw %struct.refs_cb_data, ptr %8, i32 0, i32 0
  store ptr %7, ptr %10, align 8, !tbaa !47
  %11 = load i32, ptr %5, align 4, !tbaa !4
  %12 = and i32 %11, 2
  %13 = icmp ne i32 %12, 0
  br i1 %13, label %14, label %19

14:                                               ; preds = %3
  %15 = load ptr, ptr @the_repository, align 8, !tbaa !8
  %16 = call ptr @_(ptr noundef @.str.20)
  %17 = call ptr @start_delayed_progress(ptr noundef %15, ptr noundef %16, i64 noundef 0)
  %18 = getelementptr inbounds nuw %struct.refs_cb_data, ptr %8, i32 0, i32 1
  store ptr %17, ptr %18, align 8, !tbaa !51
  br label %19

19:                                               ; preds = %14, %3
  %20 = load ptr, ptr @the_repository, align 8, !tbaa !8
  %21 = call ptr @get_main_ref_store(ptr noundef %20)
  %22 = call i32 @refs_for_each_ref(ptr noundef %21, ptr noundef @add_ref_to_set, ptr noundef %8)
  %23 = getelementptr inbounds nuw %struct.refs_cb_data, ptr %8, i32 0, i32 1
  call void @stop_progress(ptr noundef %23)
  %24 = load ptr, ptr %4, align 8, !tbaa !44
  %25 = load i32, ptr %5, align 4, !tbaa !4
  %26 = load ptr, ptr %6, align 8, !tbaa !45
  %27 = call i32 @write_commit_graph(ptr noundef %24, ptr noundef null, ptr noundef %7, i32 noundef %25, ptr noundef %26)
  store i32 %27, ptr %9, align 4, !tbaa !4
  call void @oidset_clear(ptr noundef %7)
  %28 = load i32, ptr %9, align 4, !tbaa !4
  call void @llvm.lifetime.end.p0(i64 4, ptr %9) #12
  call void @llvm.lifetime.end.p0(i64 16, ptr %8) #12
  call void @llvm.lifetime.end.p0(i64 40, ptr %7) #12
  ret i32 %28
}