; Function Attrs: nounwind uwtable
define dso_local range(i32 -1, 1) i32 @write_commit_graph_reachable(ptr noundef %0, i32 noundef %1, ptr noundef %2) local_unnamed_addr #0 {
  %4 = alloca %struct.oidset, align 8
  %5 = alloca %struct.refs_cb_data, align 8
  call void @llvm.lifetime.start.p0(i64 40, ptr nonnull %4) #24
  call void @llvm.memset.p0.i64(ptr noundef nonnull align 8 dereferenceable(40) %4, i8 0, i64 40, i1 false)
  call void @llvm.lifetime.start.p0(i64 16, ptr nonnull %5) #24
  %6 = getelementptr inbounds nuw i8, ptr %5, i64 8
  store i64 0, ptr %6, align 8
  store ptr %4, ptr %5, align 8, !tbaa !43
  %7 = and i32 %1, 2
  %.not = icmp eq i32 %7, 0
  br i1 %.not, label %15, label %8

8:                                                ; preds = %3
  %9 = load ptr, ptr @the_repository, align 8, !tbaa !4
  %10 = load i32, ptr @git_gettext_enabled, align 4, !tbaa !47
  %.not4.i = icmp eq i32 %10, 0
  br i1 %.not4.i, label %_.exit, label %11

11:                                               ; preds = %8
  %12 = call ptr @dcgettext(ptr noundef null, ptr noundef nonnull @.str.20, i32 noundef 5) #24
  br label %_.exit

_.exit:                                           ; preds = %8, %11
  %.0.i = phi ptr [ %12, %11 ], [ @.str.20, %8 ]
  %13 = call ptr @start_delayed_progress(ptr noundef %9, ptr noundef %.0.i, i64 noundef 0) #24
  %14 = getelementptr inbounds nuw i8, ptr %5, i64 8
  store ptr %13, ptr %14, align 8, !tbaa !48
  br label %15

15:                                               ; preds = %_.exit, %3
  %16 = load ptr, ptr @the_repository, align 8, !tbaa !4
  %17 = call ptr @get_main_ref_store(ptr noundef %16) #24
  %18 = call i32 @refs_for_each_ref(ptr noundef %17, ptr noundef nonnull @add_ref_to_set, ptr noundef nonnull %5) #24
  %19 = load i32, ptr @git_gettext_enabled, align 4, !tbaa !47
  %.not4.i.i = icmp eq i32 %19, 0
  br i1 %.not4.i.i, label %stop_progress.exit, label %20

20:                                               ; preds = %15
  %21 = call ptr @dcgettext(ptr noundef null, ptr noundef nonnull @.str.56, i32 noundef 5) #24
  br label %stop_progress.exit

stop_progress.exit:                               ; preds = %15, %20
  %.0.i.i = phi ptr [ %21, %20 ], [ @.str.56, %15 ]
  %22 = getelementptr inbounds nuw i8, ptr %5, i64 8
  call void @stop_progress_msg(ptr noundef nonnull %22, ptr noundef %.0.i.i) #24
  %23 = call i32 @write_commit_graph(ptr noundef %0, ptr noundef null, ptr noundef nonnull %4, i32 noundef %1, ptr noundef %2)
  call void @oidset_clear(ptr noundef nonnull %4) #24
  call void @llvm.lifetime.end.p0(i64 16, ptr nonnull %5) #24
  call void @llvm.lifetime.end.p0(i64 40, ptr nonnull %4) #24
  ret i32 %23
}